target datalayout = "e-m:e-p270:32:32-p271:32:32-p272:64:64-i64:64-i128:128-f80:128-n8:16:32:64-S128"
target triple = "x86_64-pc-linux-gnu"

@.str.65 = private unnamed_addr constant [8 x i8] c"%s %s (\00", align 1
@.str.66 = private unnamed_addr constant [6 x i8] c"token\00", align 1
@.str.67 = private unnamed_addr constant [6 x i8] c"nterm\00", align 1
@.str.68 = private unnamed_addr constant [2 x i8] c")\00", align 1

; Function Attrs: nounwind uwtable
define internal void @yy_symbol_value_print(ptr noundef %0, i32 noundef %1, ptr noundef %2) #0 {
  %4 = alloca ptr, align 8
  %5 = alloca i32, align 4
  %6 = alloca ptr, align 8
  %7 = alloca ptr, align 8
  store ptr %0, ptr %4, align 8
  store i32 %1, ptr %5, align 4
  store ptr %2, ptr %6, align 8
  %8 = load ptr, ptr %4, align 8
  store ptr %8, ptr %7, align 8
  %9 = load ptr, ptr %6, align 8
  %10 = icmp ne ptr %9, null
  br i1 %10, label %12, label %11

11:                                               ; preds = %3
  br label %13

12:                                               ; preds = %3
  br label %13

13:                                               ; preds = %12, %11
  ret void
}

; Function Attrs: nounwind uwtable
define internal ptr @yysymbol_name(i32 noundef %0) #0 {
  %2 = alloca i32, align 4
  store i32 %0, ptr %2, align 4
  %3 = load i32, ptr %2, align 4
  %4 = sext i32 %3 to i64
  %5 = getelementptr inbounds [152 x ptr], ptr @yytname, i64 0, i64 %4
  %6 = load ptr, ptr %5, align 8
  ret ptr %6
}

; Function Attrs: nounwind uwtable
define internal void @yy_symbol_print(ptr noundef %0, i32 noundef %1, ptr noundef %2) #0 {
  %4 = alloca ptr, align 8
  %5 = alloca i32, align 4
  %6 = alloca ptr, align 8
  store ptr %0, ptr %4, align 8
  store i32 %1, ptr %5, align 4
  store ptr %2, ptr %6, align 8
  %7 = load ptr, ptr %4, align 8
  %8 = load i32, ptr %5, align 4
  %9 = icmp slt i32 %8, 107
  %10 = select i1 %9, ptr @.str.66, ptr @.str.67
  %11 = load i32, ptr %5, align 4
  %12 = call ptr @yysymbol_name(i32 noundef %11)
  %13 = call i32 (ptr, ptr, ...) @fprintf(ptr noundef %7, ptr noundef @.str.65, ptr noundef %10, ptr noundef %12) #12
  %14 = load ptr, ptr %4, align 8
  %15 = load i32, ptr %5, align 4
  %16 = load ptr, ptr %6, align 8
  call void @yy_symbol_value_print(ptr noundef %14, i32 noundef %15, ptr noundef %16)
  %17 = load ptr, ptr %4, align 8
  %18 = call i32 (ptr, ptr, ...) @fprintf(ptr noundef %17, ptr noundef @.str.68) #12
  ret void
}