; Function Attrs: nofree nounwind uwtable
define internal fastcc void @yy_symbol_print(ptr noundef captures(none) %0, i32 noundef range(i32 -128, 256) %1) unnamed_addr #13 {
  %3 = icmp slt i32 %1, 107
  %4 = select i1 %3, ptr @.str.66, ptr @.str.67
  %5 = sext i32 %1 to i64
  %6 = getelementptr inbounds [152 x ptr], ptr @yytname, i64 0, i64 %5
  %7 = load ptr, ptr %6, align 8
  %8 = tail call i32 (ptr, ptr, ...) @fprintf(ptr noundef %0, ptr noundef nonnull @.str.65, ptr noundef nonnull %4, ptr noundef %7) #22
  %fputc = tail call i32 @fputc(i32 41, ptr %0)
  ret void
}